; Function Attrs: mustprogress nounwind uwtable
define internal void @_ZN12_GLOBAL__N_140ParseTest_AllUndefOkFlagsAreIgnored_TestD0Ev(ptr noundef nonnull align 8 dereferenceable(24) initializes((0, 8)) %0) unnamed_addr #14 align 2 personality ptr @__gxx_personality_v0 {
  store ptr getelementptr inbounds nuw inrange(-16, 48) (i8, ptr @_ZTVN12_GLOBAL__N_19ParseTestE, i64 16), ptr %0, align 8, !tbaa !49
  invoke void @_ZN4absl14flags_internal16SetFlagsHelpModeENS0_8HelpModeE(i32 noundef 0)
          to label %_ZN12_GLOBAL__N_19ParseTestD2Ev.exit unwind label %2

2:                                                ; preds = %1
  %3 = landingpad { ptr, i32 }
          catch ptr null
  %4 = extractvalue { ptr, i32 } %3, 0
  tail call void @__clang_call_terminate(ptr %4) #34
  unreachable

_ZN12_GLOBAL__N_19ParseTestD2Ev.exit:             ; preds = %1
  %5 = getelementptr inbounds nuw i8, ptr %0, i64 16
  tail call void @_ZN4absl9FlagSaverD1Ev(ptr noundef nonnull align 8 dereferenceable(8) %5) #33
  tail call void @_ZN7testing4TestD2Ev(ptr noundef nonnull align 8 dereferenceable(24) %0) #33
  tail call void @_ZdlPvm(ptr noundef nonnull %0, i64 noundef 24) #32
  ret void
}